; Function Attrs: mustprogress uwtable
define noundef zeroext i1 @_ZN6icu_776number4impl16GeneratorHelpers7symbolsERKNS1_10MacroPropsERNS_13UnicodeStringER10UErrorCode(ptr noundef nonnull align 8 dereferenceable(472) %0, ptr noundef nonnull align 8 dereferenceable(64) %1, ptr noundef nonnull writeonly align 4 captures(none) dereferenceable(4) %2) local_unnamed_addr #1 align 2 personality ptr @__gxx_personality_v0 {
  %4 = alloca %"class.icu_77::UnicodeString", align 8
  %5 = getelementptr inbounds nuw i8, ptr %0, i64 136
  %6 = tail call noundef zeroext i1 @_ZNK6icu_776number4impl14SymbolsWrapper17isNumberingSystemEv(ptr noundef nonnull align 8 dereferenceable(16) %5)
  br i1 %6, label %7, label %32

7:                                                ; preds = %3
  %8 = tail call noundef ptr @_ZNK6icu_776number4impl14SymbolsWrapper18getNumberingSystemEv(ptr noundef nonnull align 8 dereferenceable(16) %5)
  %9 = tail call noundef ptr @_ZNK6icu_7715NumberingSystem7getNameEv(ptr noundef nonnull align 8 dereferenceable(86) %8)
  %10 = tail call i32 @strcmp(ptr noundef nonnull dereferenceable(1) %9, ptr noundef nonnull dereferenceable(5) @.str.34) #21
  %11 = icmp eq i32 %10, 0
  br i1 %11, label %12, label %16

12:                                               ; preds = %7
  %13 = invoke noundef nonnull align 8 dereferenceable(64) ptr @_ZN6icu_7713UnicodeString8doAppendEPKDsii(ptr noundef nonnull align 8 dereferenceable(64) %1, ptr noundef nonnull @.str.53, i32 noundef 0, i32 noundef -1)
          to label %_ZN6icu_7713UnicodeString6appendENS_14ConstChar16PtrEi.exit unwind label %14

_ZN6icu_7713UnicodeString6appendENS_14ConstChar16PtrEi.exit: ; preds = %12
  tail call void asm sideeffect "", "rm,~{memory},~{dirflag},~{fpsr},~{flags}"(ptr nonnull @.str.53) #18, !srcloc !15
  br label %35

14:                                               ; preds = %12
  %15 = landingpad { ptr, i32 }
          cleanup
  tail call void asm sideeffect "", "rm,~{memory},~{dirflag},~{fpsr},~{flags}"(ptr nonnull @.str.53) #18, !srcloc !15
  br label %common.resume

16:                                               ; preds = %7
  %17 = invoke noundef nonnull align 8 dereferenceable(64) ptr @_ZN6icu_7713UnicodeString8doAppendEPKDsii(ptr noundef nonnull align 8 dereferenceable(64) %1, ptr noundef nonnull @.str.54, i32 noundef 0, i32 noundef -1)
          to label %_ZN6icu_7713UnicodeString6appendENS_14ConstChar16PtrEi.exit15 unwind label %30

_ZN6icu_7713UnicodeString6appendENS_14ConstChar16PtrEi.exit15: ; preds = %16
  tail call void asm sideeffect "", "rm,~{memory},~{dirflag},~{fpsr},~{flags}"(ptr nonnull @.str.54) #18, !srcloc !15
  call void @llvm.lifetime.start.p0(i64 64, ptr nonnull %4) #18
  %18 = tail call noundef ptr @_ZNK6icu_7715NumberingSystem7getNameEv(ptr noundef nonnull align 8 dereferenceable(86) %8)
  call void @_ZN6icu_7713UnicodeStringC1EPKciNS0_10EInvariantE(ptr noundef nonnull align 8 dereferenceable(64) %4, ptr noundef %18, i32 noundef -1, i32 noundef 0)
  %19 = getelementptr inbounds nuw i8, ptr %4, i64 8
  %20 = load i16, ptr %19, align 8, !tbaa !25
  %21 = icmp slt i16 %20, 0
  %22 = ashr i16 %20, 5
  %23 = sext i16 %22 to i32
  %24 = getelementptr inbounds nuw i8, ptr %4, i64 12
  %25 = load i32, ptr %24, align 4
  %26 = select i1 %21, i32 %25, i32 %23
  %27 = invoke noundef nonnull align 8 dereferenceable(64) ptr @_ZN6icu_7713UnicodeString8doAppendERKS0_ii(ptr noundef nonnull align 8 dereferenceable(64) %1, ptr noundef nonnull align 8 dereferenceable(64) %4, i32 noundef 0, i32 noundef %26)
          to label %_ZN6icu_776number4impl17blueprint_helpers29generateNumberingSystemOptionERKNS_15NumberingSystemERNS_13UnicodeStringER10UErrorCode.exit unwind label %28

common.resume:                                    ; preds = %14, %30, %28
  %common.resume.op = phi { ptr, i32 } [ %29, %28 ], [ %15, %14 ], [ %31, %30 ]
  resume { ptr, i32 } %common.resume.op

28:                                               ; preds = %_ZN6icu_7713UnicodeString6appendENS_14ConstChar16PtrEi.exit15
  %29 = landingpad { ptr, i32 }
          cleanup
  call void @_ZN6icu_7713UnicodeStringD1Ev(ptr noundef nonnull align 8 dereferenceable(64) %4) #18
  call void @llvm.lifetime.end.p0(i64 64, ptr nonnull %4) #18
  br label %common.resume

_ZN6icu_776number4impl17blueprint_helpers29generateNumberingSystemOptionERKNS_15NumberingSystemERNS_13UnicodeStringER10UErrorCode.exit: ; preds = %_ZN6icu_7713UnicodeString6appendENS_14ConstChar16PtrEi.exit15
  call void @_ZN6icu_7713UnicodeStringD1Ev(ptr noundef nonnull align 8 dereferenceable(64) %4) #18
  call void @llvm.lifetime.end.p0(i64 64, ptr nonnull %4) #18
  br label %35

30:                                               ; preds = %16
  %31 = landingpad { ptr, i32 }
          cleanup
  tail call void asm sideeffect "", "rm,~{memory},~{dirflag},~{fpsr},~{flags}"(ptr nonnull @.str.54) #18, !srcloc !15
  br label %common.resume

32:                                               ; preds = %3
  %33 = tail call noundef zeroext i1 @_ZNK6icu_776number4impl14SymbolsWrapper22isDecimalFormatSymbolsEv(ptr noundef nonnull align 8 dereferenceable(16) %5)
  br i1 %33, label %34, label %35

34:                                               ; preds = %32
  store i32 16, ptr %2, align 4, !tbaa !13
  br label %35

35:                                               ; preds = %32, %_ZN6icu_7713UnicodeString6appendENS_14ConstChar16PtrEi.exit, %_ZN6icu_776number4impl17blueprint_helpers29generateNumberingSystemOptionERKNS_15NumberingSystemERNS_13UnicodeStringER10UErrorCode.exit, %34
  ret i1 %6
}